target datalayout = "e-m:e-p270:32:32-p271:32:32-p272:64:64-i64:64-i128:128-f80:128-n8:16:32:64-S128"
target triple = "x86_64-pc-linux-gnu"

%struct.SVG_RendererRec_ = type { %struct.FT_RendererRec_, i8, i8, %struct.SVG_RendererHooks_, ptr }
%struct.FT_RendererRec_ = type { %struct.FT_ModuleRec_, ptr, i32, %struct.FT_Glyph_Class_, ptr, ptr, ptr }
%struct.FT_ModuleRec_ = type { ptr, ptr, ptr }
%struct.FT_Glyph_Class_ = type { i64, i32, ptr, ptr, ptr, ptr, ptr, ptr }
%struct.SVG_RendererHooks_ = type { ptr, ptr, ptr, ptr }
%struct.FT_LibraryRec_ = type { ptr, i32, i32, i32, i32, [32 x ptr], %struct.FT_ListRec_, ptr, ptr, [4 x ptr], [3 x %struct.FT_Vector_], i32 }
%struct.FT_ListRec_ = type { ptr, ptr }
%struct.FT_Vector_ = type { i64, i64 }
%struct.FT_GlyphSlotRec_ = type { ptr, ptr, ptr, i32, %struct.FT_Generic_, %struct.FT_Glyph_Metrics_, i64, i64, %struct.FT_Vector_, i32, %struct.FT_Bitmap_, i32, i32, %struct.FT_Outline_, i32, ptr, ptr, i64, i64, i64, ptr, ptr }
%struct.FT_Generic_ = type { ptr, ptr }
%struct.FT_Glyph_Metrics_ = type { i64, i64, i64, i64, i64, i64, i64, i64 }
%struct.FT_Bitmap_ = type { i32, i32, i32, ptr, i16, i8, i8, ptr }
%struct.FT_Outline_ = type { i16, i16, ptr, ptr, ptr, i32 }
%struct.FT_Slot_InternalRec_ = type { ptr, i32, i8, %struct.FT_Matrix_, %struct.FT_Vector_, ptr, i32 }
%struct.FT_Matrix_ = type { i64, i64, i64, i64 }

; Function Attrs: nounwind uwtable
define internal i32 @ft_svg_preset_slot(ptr noundef %0, ptr noundef %1, i8 noundef zeroext %2) #0 {
  %4 = alloca i32, align 4
  %5 = alloca ptr, align 8
  %6 = alloca ptr, align 8
  %7 = alloca i8, align 1
  %8 = alloca ptr, align 8
  %9 = alloca %struct.SVG_RendererHooks_, align 8
  %10 = alloca i32, align 4
  store ptr %0, ptr %5, align 8, !tbaa !3
  store ptr %1, ptr %6, align 8, !tbaa !31
  store i8 %2, ptr %7, align 1, !tbaa !81
  call void @llvm.lifetime.start.p0(i64 8, ptr %8) #6
  %11 = load ptr, ptr %5, align 8, !tbaa !3
  store ptr %11, ptr %8, align 8, !tbaa !8
  call void @llvm.lifetime.start.p0(i64 32, ptr %9) #6
  %12 = load ptr, ptr %8, align 8, !tbaa !8
  %13 = getelementptr inbounds nuw %struct.SVG_RendererRec_, ptr %12, i32 0, i32 3
  call void @llvm.memcpy.p0.p0.i64(ptr align 8 %9, ptr align 8 %13, i64 32, i1 false), !tbaa.struct !42
  %14 = load ptr, ptr %8, align 8, !tbaa !8
  %15 = getelementptr inbounds nuw %struct.SVG_RendererRec_, ptr %14, i32 0, i32 2
  %16 = load i8, ptr %15, align 1, !tbaa !24
  %17 = zext i8 %16 to i32
  %18 = icmp eq i32 %17, 0
  br i1 %18, label %19, label %23

19:                                               ; preds = %3
  br label %20

20:                                               ; preds = %19
  br label %21

21:                                               ; preds = %20
  br label %22

22:                                               ; preds = %21
  store i32 158, ptr %4, align 4
  store i32 1, ptr %10, align 4
  br label %48

23:                                               ; preds = %3
  %24 = load ptr, ptr %8, align 8, !tbaa !8
  %25 = getelementptr inbounds nuw %struct.SVG_RendererRec_, ptr %24, i32 0, i32 1
  %26 = load i8, ptr %25, align 8, !tbaa !12
  %27 = zext i8 %26 to i32
  %28 = icmp eq i32 %27, 0
  br i1 %28, label %29, label %40

29:                                               ; preds = %23
  br label %30

30:                                               ; preds = %29
  br label %31

31:                                               ; preds = %30
  br label %32

32:                                               ; preds = %31
  %33 = getelementptr inbounds nuw %struct.SVG_RendererHooks_, ptr %9, i32 0, i32 0
  %34 = load ptr, ptr %33, align 8, !tbaa !43
  %35 = load ptr, ptr %8, align 8, !tbaa !8
  %36 = getelementptr inbounds nuw %struct.SVG_RendererRec_, ptr %35, i32 0, i32 4
  %37 = call i32 %34(ptr noundef %36)
  %38 = load ptr, ptr %8, align 8, !tbaa !8
  %39 = getelementptr inbounds nuw %struct.SVG_RendererRec_, ptr %38, i32 0, i32 1
  store i8 1, ptr %39, align 8, !tbaa !12
  br label %40

40:                                               ; preds = %32, %23
  %41 = getelementptr inbounds nuw %struct.SVG_RendererHooks_, ptr %9, i32 0, i32 3
  %42 = load ptr, ptr %41, align 8, !tbaa !82
  %43 = load ptr, ptr %6, align 8, !tbaa !31
  %44 = load i8, ptr %7, align 1, !tbaa !81
  %45 = load ptr, ptr %8, align 8, !tbaa !8
  %46 = getelementptr inbounds nuw %struct.SVG_RendererRec_, ptr %45, i32 0, i32 4
  %47 = call i32 %42(ptr noundef %43, i8 noundef zeroext %44, ptr noundef %46)
  store i32 %47, ptr %4, align 4
  store i32 1, ptr %10, align 4
  br label %48

48:                                               ; preds = %40, %22
  call void @llvm.lifetime.end.p0(i64 32, ptr %9) #6
  call void @llvm.lifetime.end.p0(i64 8, ptr %8) #6
  %49 = load i32, ptr %4, align 4
  ret i32 %49
}

; Function Attrs: nounwind uwtable
define internal i32 @ft_svg_render(ptr noundef %0, ptr noundef %1, i32 noundef %2, ptr noundef %3) #0 {
  %5 = alloca i32, align 4
  %6 = alloca ptr, align 8
  %7 = alloca ptr, align 8
  %8 = alloca i32, align 4
  %9 = alloca ptr, align 8
  %10 = alloca ptr, align 8
  %11 = alloca ptr, align 8
  %12 = alloca ptr, align 8
  %13 = alloca i32, align 4
  %14 = alloca i64, align 8
  %15 = alloca %struct.SVG_RendererHooks_, align 8
  %16 = alloca i32, align 4
  store ptr %0, ptr %6, align 8, !tbaa !29
  store ptr %1, ptr %7, align 8, !tbaa !31
  store i32 %2, ptr %8, align 4, !tbaa !10
  store ptr %3, ptr %9, align 8, !tbaa !33
  call void @llvm.lifetime.start.p0(i64 8, ptr %10) #6
  %17 = load ptr, ptr %6, align 8, !tbaa !29
  store ptr %17, ptr %10, align 8, !tbaa !8
  call void @llvm.lifetime.start.p0(i64 8, ptr %11) #6
  %18 = load ptr, ptr %6, align 8, !tbaa !29
  %19 = getelementptr inbounds nuw %struct.FT_RendererRec_, ptr %18, i32 0, i32 0
  %20 = getelementptr inbounds nuw %struct.FT_ModuleRec_, ptr %19, i32 0, i32 1
  %21 = load ptr, ptr %20, align 8, !tbaa !35
  store ptr %21, ptr %11, align 8, !tbaa !36
  call void @llvm.lifetime.start.p0(i64 8, ptr %12) #6
  %22 = load ptr, ptr %11, align 8, !tbaa !36
  %23 = getelementptr inbounds nuw %struct.FT_LibraryRec_, ptr %22, i32 0, i32 0
  %24 = load ptr, ptr %23, align 8, !tbaa !37
  store ptr %24, ptr %12, align 8, !tbaa !41
  call void @llvm.lifetime.start.p0(i64 4, ptr %13) #6
  call void @llvm.lifetime.start.p0(i64 8, ptr %14) #6
  call void @llvm.lifetime.start.p0(i64 32, ptr %15) #6
  %25 = load ptr, ptr %10, align 8, !tbaa !8
  %26 = getelementptr inbounds nuw %struct.SVG_RendererRec_, ptr %25, i32 0, i32 3
  call void @llvm.memcpy.p0.p0.i64(ptr align 8 %15, ptr align 8 %26, i64 32, i1 false), !tbaa.struct !42
  %27 = load i32, ptr %8, align 4, !tbaa !10
  store i32 %27, ptr %8, align 4, !tbaa !10
  %28 = load ptr, ptr %9, align 8, !tbaa !33
  store ptr %28, ptr %9, align 8, !tbaa !33
  %29 = load i32, ptr %8, align 4, !tbaa !10
  %30 = icmp ne i32 %29, 0
  br i1 %30, label %31, label %32

31:                                               ; preds = %4
  store i32 132, ptr %5, align 4
  store i32 1, ptr %16, align 4
  br label %114

32:                                               ; preds = %4
  %33 = load ptr, ptr %10, align 8, !tbaa !8
  %34 = getelementptr inbounds nuw %struct.SVG_RendererRec_, ptr %33, i32 0, i32 2
  %35 = load i8, ptr %34, align 1, !tbaa !24
  %36 = zext i8 %35 to i32
  %37 = icmp eq i32 %36, 0
  br i1 %37, label %38, label %42

38:                                               ; preds = %32
  br label %39

39:                                               ; preds = %38
  br label %40

40:                                               ; preds = %39
  br label %41

41:                                               ; preds = %40
  store i32 158, ptr %5, align 4
  store i32 1, ptr %16, align 4
  br label %114

42:                                               ; preds = %32
  %43 = load ptr, ptr %10, align 8, !tbaa !8
  %44 = getelementptr inbounds nuw %struct.SVG_RendererRec_, ptr %43, i32 0, i32 1
  %45 = load i8, ptr %44, align 8, !tbaa !12
  %46 = zext i8 %45 to i32
  %47 = icmp eq i32 %46, 0
  br i1 %47, label %48, label %59

48:                                               ; preds = %42
  br label %49

49:                                               ; preds = %48
  br label %50

50:                                               ; preds = %49
  br label %51

51:                                               ; preds = %50
  %52 = getelementptr inbounds nuw %struct.SVG_RendererHooks_, ptr %15, i32 0, i32 0
  %53 = load ptr, ptr %52, align 8, !tbaa !43
  %54 = load ptr, ptr %10, align 8, !tbaa !8
  %55 = getelementptr inbounds nuw %struct.SVG_RendererRec_, ptr %54, i32 0, i32 4
  %56 = call i32 %53(ptr noundef %55)
  store i32 %56, ptr %13, align 4, !tbaa !10
  %57 = load ptr, ptr %10, align 8, !tbaa !8
  %58 = getelementptr inbounds nuw %struct.SVG_RendererRec_, ptr %57, i32 0, i32 1
  store i8 1, ptr %58, align 8, !tbaa !12
  br label %59

59:                                               ; preds = %51, %42
  %60 = load ptr, ptr %6, align 8, !tbaa !29
  %61 = load ptr, ptr %7, align 8, !tbaa !31
  %62 = call i32 @ft_svg_preset_slot(ptr noundef %60, ptr noundef %61, i8 noundef zeroext 1)
  %63 = load ptr, ptr %7, align 8, !tbaa !31
  %64 = getelementptr inbounds nuw %struct.FT_GlyphSlotRec_, ptr %63, i32 0, i32 10
  %65 = getelementptr inbounds nuw %struct.FT_Bitmap_, ptr %64, i32 0, i32 2
  %66 = load i32, ptr %65, align 8, !tbaa !44
  %67 = sext i32 %66 to i64
  %68 = load ptr, ptr %7, align 8, !tbaa !31
  %69 = getelementptr inbounds nuw %struct.FT_GlyphSlotRec_, ptr %68, i32 0, i32 10
  %70 = getelementptr inbounds nuw %struct.FT_Bitmap_, ptr %69, i32 0, i32 0
  %71 = load i32, ptr %70, align 8, !tbaa !56
  %72 = zext i32 %71 to i64
  %73 = mul i64 %67, %72
  store i64 %73, ptr %14, align 8, !tbaa !57
  %74 = load ptr, ptr %12, align 8, !tbaa !41
  %75 = load i64, ptr %14, align 8, !tbaa !57
  %76 = call ptr @ft_mem_alloc(ptr noundef %74, i64 noundef %75, ptr noundef %13)
  %77 = load ptr, ptr %7, align 8, !tbaa !31
  %78 = getelementptr inbounds nuw %struct.FT_GlyphSlotRec_, ptr %77, i32 0, i32 10
  %79 = getelementptr inbounds nuw %struct.FT_Bitmap_, ptr %78, i32 0, i32 3
  store ptr %76, ptr %79, align 8, !tbaa !58
  %80 = load i32, ptr %13, align 4, !tbaa !10
  %81 = icmp ne i32 %80, 0
  br i1 %81, label %82, label %84

82:                                               ; preds = %59
  %83 = load i32, ptr %13, align 4, !tbaa !10
  store i32 %83, ptr %5, align 4
  store i32 1, ptr %16, align 4
  br label %114

84:                                               ; preds = %59
  %85 = getelementptr inbounds nuw %struct.SVG_RendererHooks_, ptr %15, i32 0, i32 2
  %86 = load ptr, ptr %85, align 8, !tbaa !59
  %87 = load ptr, ptr %7, align 8, !tbaa !31
  %88 = load ptr, ptr %10, align 8, !tbaa !8
  %89 = getelementptr inbounds nuw %struct.SVG_RendererRec_, ptr %88, i32 0, i32 4
  %90 = call i32 %86(ptr noundef %87, ptr noundef %89)
  store i32 %90, ptr %13, align 4, !tbaa !10
  %91 = load i32, ptr %13, align 4, !tbaa !10
  %92 = icmp ne i32 %91, 0
  br i1 %92, label %93, label %105

93:                                               ; preds = %84
  br label %94

94:                                               ; preds = %93
  %95 = load ptr, ptr %12, align 8, !tbaa !41
  %96 = load ptr, ptr %7, align 8, !tbaa !31
  %97 = getelementptr inbounds nuw %struct.FT_GlyphSlotRec_, ptr %96, i32 0, i32 10
  %98 = getelementptr inbounds nuw %struct.FT_Bitmap_, ptr %97, i32 0, i32 3
  %99 = load ptr, ptr %98, align 8, !tbaa !58
  call void @ft_mem_free(ptr noundef %95, ptr noundef %99)
  %100 = load ptr, ptr %7, align 8, !tbaa !31
  %101 = getelementptr inbounds nuw %struct.FT_GlyphSlotRec_, ptr %100, i32 0, i32 10
  %102 = getelementptr inbounds nuw %struct.FT_Bitmap_, ptr %101, i32 0, i32 3
  store ptr null, ptr %102, align 8, !tbaa !58
  br label %103

103:                                              ; preds = %94
  br label %104

104:                                              ; preds = %103
  br label %112

105:                                              ; preds = %84
  %106 = load ptr, ptr %7, align 8, !tbaa !31
  %107 = getelementptr inbounds nuw %struct.FT_GlyphSlotRec_, ptr %106, i32 0, i32 21
  %108 = load ptr, ptr %107, align 8, !tbaa !60
  %109 = getelementptr inbounds nuw %struct.FT_Slot_InternalRec_, ptr %108, i32 0, i32 1
  %110 = load i32, ptr %109, align 8, !tbaa !61
  %111 = or i32 %110, 1
  store i32 %111, ptr %109, align 8, !tbaa !61
  br label %112

112:                                              ; preds = %105, %104
  %113 = load i32, ptr %13, align 4, !tbaa !10
  store i32 %113, ptr %5, align 4
  store i32 1, ptr %16, align 4
  br label %114

114:                                              ; preds = %112, %82, %41, %31
  call void @llvm.lifetime.end.p0(i64 32, ptr %15) #6
  call void @llvm.lifetime.end.p0(i64 8, ptr %14) #6
  call void @llvm.lifetime.end.p0(i64 4, ptr %13) #6
  call void @llvm.lifetime.end.p0(i64 8, ptr %12) #6
  call void @llvm.lifetime.end.p0(i64 8, ptr %11) #6
  call void @llvm.lifetime.end.p0(i64 8, ptr %10) #6
  %115 = load i32, ptr %5, align 4
  ret i32 %115
}