; Function Attrs: nounwind uwtable
define internal i32 @ft_svg_render(ptr noundef %0, ptr noundef %1, i32 noundef %2, ptr readnone captures(none) %3) #1 {
  %5 = alloca i32, align 4
  %6 = getelementptr inbounds nuw i8, ptr %0, i64 8
  %7 = load ptr, ptr %6, align 8, !tbaa !21
  %8 = load ptr, ptr %7, align 8, !tbaa !22
  call void @llvm.lifetime.start.p0(i64 4, ptr nonnull %5) #8
  %9 = getelementptr inbounds nuw i8, ptr %0, i64 136
  %.sroa.0.0.copyload = load ptr, ptr %9, align 8, !tbaa !28
  %.sroa.41.0..sroa_idx = getelementptr inbounds nuw i8, ptr %0, i64 152
  %.sroa.41.0.copyload = load ptr, ptr %.sroa.41.0..sroa_idx, align 8, !tbaa !28
  %.not = icmp eq i32 %2, 0
  br i1 %.not, label %10, label %45

10:                                               ; preds = %4
  %11 = getelementptr inbounds nuw i8, ptr %0, i64 129
  %12 = load i8, ptr %11, align 1, !tbaa !19
  %13 = icmp eq i8 %12, 0
  br i1 %13, label %45, label %14

14:                                               ; preds = %10
  %15 = getelementptr inbounds nuw i8, ptr %0, i64 128
  %16 = load i8, ptr %15, align 8, !tbaa !3
  %17 = icmp eq i8 %16, 0
  br i1 %17, label %18, label %.thread

18:                                               ; preds = %14
  %19 = getelementptr inbounds nuw i8, ptr %0, i64 168
  %20 = tail call i32 %.sroa.0.0.copyload(ptr noundef nonnull %19) #8
  store i32 %20, ptr %5, align 4, !tbaa !29
  store i8 1, ptr %15, align 8, !tbaa !3
  %.pre = load i8, ptr %11, align 1, !tbaa !19
  %21 = icmp eq i8 %.pre, 0
  br i1 %21, label %ft_svg_preset_slot.exit, label %.thread

.thread:                                          ; preds = %14, %18
  %.sroa.41.0.copyload.i32.in = getelementptr inbounds nuw i8, ptr %0, i64 160
  %.sroa.41.0.copyload.i32 = load ptr, ptr %.sroa.41.0.copyload.i32.in, align 8, !tbaa !28
  %22 = getelementptr inbounds nuw i8, ptr %0, i64 168
  %23 = tail call i32 %.sroa.41.0.copyload.i32(ptr noundef %1, i8 noundef zeroext 1, ptr noundef nonnull %22) #8
  br label %ft_svg_preset_slot.exit

ft_svg_preset_slot.exit:                          ; preds = %18, %.thread
  %24 = getelementptr inbounds nuw i8, ptr %1, i64 152
  %25 = getelementptr inbounds nuw i8, ptr %1, i64 160
  %26 = load i32, ptr %25, align 8, !tbaa !30
  %27 = sext i32 %26 to i64
  %28 = load i32, ptr %24, align 8, !tbaa !45
  %29 = zext i32 %28 to i64
  %30 = mul nsw i64 %29, %27
  %31 = call ptr @ft_mem_alloc(ptr noundef %8, i64 noundef %30, ptr noundef nonnull %5) #8
  %32 = getelementptr inbounds nuw i8, ptr %1, i64 168
  store ptr %31, ptr %32, align 8, !tbaa !46
  %33 = load i32, ptr %5, align 4, !tbaa !29
  %.not26 = icmp eq i32 %33, 0
  br i1 %.not26, label %34, label %45

34:                                               ; preds = %ft_svg_preset_slot.exit
  %35 = getelementptr inbounds nuw i8, ptr %0, i64 168
  %36 = call i32 %.sroa.41.0.copyload(ptr noundef nonnull %1, ptr noundef nonnull %35) #8
  store i32 %36, ptr %5, align 4, !tbaa !29
  %.not27 = icmp eq i32 %36, 0
  br i1 %.not27, label %39, label %37

37:                                               ; preds = %34
  %38 = load ptr, ptr %32, align 8, !tbaa !46
  call void @ft_mem_free(ptr noundef %8, ptr noundef %38) #8
  store ptr null, ptr %32, align 8, !tbaa !46
  %.pre29 = load i32, ptr %5, align 4, !tbaa !29
  br label %45

39:                                               ; preds = %34
  %40 = getelementptr inbounds nuw i8, ptr %1, i64 296
  %41 = load ptr, ptr %40, align 8, !tbaa !47
  %42 = getelementptr inbounds nuw i8, ptr %41, i64 8
  %43 = load i32, ptr %42, align 8, !tbaa !48
  %44 = or i32 %43, 1
  store i32 %44, ptr %42, align 8, !tbaa !48
  br label %45

45:                                               ; preds = %37, %39, %ft_svg_preset_slot.exit, %10, %4
  %.0 = phi i32 [ 132, %4 ], [ 158, %10 ], [ %33, %ft_svg_preset_slot.exit ], [ 0, %39 ], [ %.pre29, %37 ]
  call void @llvm.lifetime.end.p0(i64 4, ptr nonnull %5) #8
  ret i32 %.0
}